target datalayout = "e-m:e-p270:32:32-p271:32:32-p272:64:64-i64:64-i128:128-f80:128-n8:16:32:64-S128"
target triple = "x86_64-pc-linux-gnu"

%struct.UDataInfo = type { i16, i16, i8, i8, i8, i8, [4 x i8], [4 x i8], [4 x i8] }
%struct.UDataSwapper = type { i8, i8, i8, i8, ptr, ptr, ptr, ptr, ptr, ptr, ptr, ptr, ptr, ptr, ptr }

@.str = private unnamed_addr constant [112 x i8] c"usprep_swap(): data format %02x.%02x.%02x.%02x (format version %02x) is not recognized as StringPrep .spp data\0A\00", align 1
@.str.1 = private unnamed_addr constant [73 x i8] c"usprep_swap(): too few bytes (%d after header) for StringPrep .spp data\0A\00", align 1
@.str.2 = private unnamed_addr constant [80 x i8] c"usprep_swap(): too few bytes (%d after header) for all of StringPrep .spp data\0A\00", align 1

; Function Attrs: inlinehint mustprogress nounwind uwtable
define internal noundef signext i8 @_ZL9U_FAILURE10UErrorCode(i32 noundef %0) #1 {
  %2 = alloca i32, align 4
  store i32 %0, ptr %2, align 4, !tbaa !9
  %3 = load i32, ptr %2, align 4, !tbaa !9
  %4 = icmp sgt i32 %3, 0
  %5 = zext i1 %4 to i8
  ret i8 %5
}

; Function Attrs: mustprogress uwtable
define i32 @usprep_swap_77(ptr noundef %0, ptr noundef %1, i32 noundef %2, ptr noundef %3, ptr noundef %4) #0 {
  %6 = alloca i32, align 4
  %7 = alloca ptr, align 8
  %8 = alloca ptr, align 8
  %9 = alloca i32, align 4
  %10 = alloca ptr, align 8
  %11 = alloca ptr, align 8
  %12 = alloca ptr, align 8
  %13 = alloca i32, align 4
  %14 = alloca ptr, align 8
  %15 = alloca ptr, align 8
  %16 = alloca ptr, align 8
  %17 = alloca [16 x i32], align 16
  %18 = alloca i32, align 4
  %19 = alloca i32, align 4
  %20 = alloca i32, align 4
  %21 = alloca i32, align 4
  %22 = alloca i32, align 4
  store ptr %0, ptr %7, align 8, !tbaa !71
  store ptr %1, ptr %8, align 8, !tbaa !8
  store i32 %2, ptr %9, align 4, !tbaa !25
  store ptr %3, ptr %10, align 8, !tbaa !8
  store ptr %4, ptr %11, align 8, !tbaa !8
  call void @llvm.lifetime.start.p0(i64 8, ptr %12) #13
  call void @llvm.lifetime.start.p0(i64 4, ptr %13) #13
  call void @llvm.lifetime.start.p0(i64 8, ptr %14) #13
  call void @llvm.lifetime.start.p0(i64 8, ptr %15) #13
  call void @llvm.lifetime.start.p0(i64 8, ptr %16) #13
  call void @llvm.lifetime.start.p0(i64 64, ptr %17) #13
  call void @llvm.lifetime.start.p0(i64 4, ptr %18) #13
  call void @llvm.lifetime.start.p0(i64 4, ptr %19) #13
  call void @llvm.lifetime.start.p0(i64 4, ptr %20) #13
  call void @llvm.lifetime.start.p0(i64 4, ptr %21) #13
  %23 = load ptr, ptr %7, align 8, !tbaa !71
  %24 = load ptr, ptr %8, align 8, !tbaa !8
  %25 = load i32, ptr %9, align 4, !tbaa !25
  %26 = load ptr, ptr %10, align 8, !tbaa !8
  %27 = load ptr, ptr %11, align 8, !tbaa !8
  %28 = call i32 @udata_swapDataHeader_77(ptr noundef %23, ptr noundef %24, i32 noundef %25, ptr noundef %26, ptr noundef %27)
  store i32 %28, ptr %13, align 4, !tbaa !25
  %29 = load ptr, ptr %11, align 8, !tbaa !8
  %30 = icmp eq ptr %29, null
  br i1 %30, label %36, label %31

31:                                               ; preds = %5
  %32 = load ptr, ptr %11, align 8, !tbaa !8
  %33 = load i32, ptr %32, align 4, !tbaa !9
  %34 = call noundef signext i8 @_ZL9U_FAILURE10UErrorCode(i32 noundef %33)
  %35 = icmp ne i8 %34, 0
  br i1 %35, label %36, label %37

36:                                               ; preds = %31, %5
  store i32 0, ptr %6, align 4
  store i32 1, ptr %22, align 4
  br label %229

37:                                               ; preds = %31
  %38 = load ptr, ptr %8, align 8, !tbaa !8
  %39 = getelementptr inbounds i8, ptr %38, i64 4
  store ptr %39, ptr %12, align 8, !tbaa !8
  %40 = load ptr, ptr %12, align 8, !tbaa !8
  %41 = getelementptr inbounds nuw %struct.UDataInfo, ptr %40, i32 0, i32 6
  %42 = getelementptr inbounds [4 x i8], ptr %41, i64 0, i64 0
  %43 = load i8, ptr %42, align 2, !tbaa !43
  %44 = zext i8 %43 to i32
  %45 = icmp eq i32 %44, 83
  br i1 %45, label %46, label %74

46:                                               ; preds = %37
  %47 = load ptr, ptr %12, align 8, !tbaa !8
  %48 = getelementptr inbounds nuw %struct.UDataInfo, ptr %47, i32 0, i32 6
  %49 = getelementptr inbounds [4 x i8], ptr %48, i64 0, i64 1
  %50 = load i8, ptr %49, align 1, !tbaa !43
  %51 = zext i8 %50 to i32
  %52 = icmp eq i32 %51, 80
  br i1 %52, label %53, label %74

53:                                               ; preds = %46
  %54 = load ptr, ptr %12, align 8, !tbaa !8
  %55 = getelementptr inbounds nuw %struct.UDataInfo, ptr %54, i32 0, i32 6
  %56 = getelementptr inbounds [4 x i8], ptr %55, i64 0, i64 2
  %57 = load i8, ptr %56, align 2, !tbaa !43
  %58 = zext i8 %57 to i32
  %59 = icmp eq i32 %58, 82
  br i1 %59, label %60, label %74

60:                                               ; preds = %53
  %61 = load ptr, ptr %12, align 8, !tbaa !8
  %62 = getelementptr inbounds nuw %struct.UDataInfo, ptr %61, i32 0, i32 6
  %63 = getelementptr inbounds [4 x i8], ptr %62, i64 0, i64 3
  %64 = load i8, ptr %63, align 1, !tbaa !43
  %65 = zext i8 %64 to i32
  %66 = icmp eq i32 %65, 80
  br i1 %66, label %67, label %74

67:                                               ; preds = %60
  %68 = load ptr, ptr %12, align 8, !tbaa !8
  %69 = getelementptr inbounds nuw %struct.UDataInfo, ptr %68, i32 0, i32 7
  %70 = getelementptr inbounds [4 x i8], ptr %69, i64 0, i64 0
  %71 = load i8, ptr %70, align 2, !tbaa !43
  %72 = zext i8 %71 to i32
  %73 = icmp eq i32 %72, 3
  br i1 %73, label %102, label %74

74:                                               ; preds = %67, %60, %53, %46, %37
  %75 = load ptr, ptr %7, align 8, !tbaa !71
  %76 = load ptr, ptr %12, align 8, !tbaa !8
  %77 = getelementptr inbounds nuw %struct.UDataInfo, ptr %76, i32 0, i32 6
  %78 = getelementptr inbounds [4 x i8], ptr %77, i64 0, i64 0
  %79 = load i8, ptr %78, align 2, !tbaa !43
  %80 = zext i8 %79 to i32
  %81 = load ptr, ptr %12, align 8, !tbaa !8
  %82 = getelementptr inbounds nuw %struct.UDataInfo, ptr %81, i32 0, i32 6
  %83 = getelementptr inbounds [4 x i8], ptr %82, i64 0, i64 1
  %84 = load i8, ptr %83, align 1, !tbaa !43
  %85 = zext i8 %84 to i32
  %86 = load ptr, ptr %12, align 8, !tbaa !8
  %87 = getelementptr inbounds nuw %struct.UDataInfo, ptr %86, i32 0, i32 6
  %88 = getelementptr inbounds [4 x i8], ptr %87, i64 0, i64 2
  %89 = load i8, ptr %88, align 2, !tbaa !43
  %90 = zext i8 %89 to i32
  %91 = load ptr, ptr %12, align 8, !tbaa !8
  %92 = getelementptr inbounds nuw %struct.UDataInfo, ptr %91, i32 0, i32 6
  %93 = getelementptr inbounds [4 x i8], ptr %92, i64 0, i64 3
  %94 = load i8, ptr %93, align 1, !tbaa !43
  %95 = zext i8 %94 to i32
  %96 = load ptr, ptr %12, align 8, !tbaa !8
  %97 = getelementptr inbounds nuw %struct.UDataInfo, ptr %96, i32 0, i32 7
  %98 = getelementptr inbounds [4 x i8], ptr %97, i64 0, i64 0
  %99 = load i8, ptr %98, align 2, !tbaa !43
  %100 = zext i8 %99 to i32
  call void (ptr, ptr, ...) @udata_printError_77(ptr noundef %75, ptr noundef @.str, i32 noundef %80, i32 noundef %85, i32 noundef %90, i32 noundef %95, i32 noundef %100)
  %101 = load ptr, ptr %11, align 8, !tbaa !8
  store i32 16, ptr %101, align 4, !tbaa !9
  store i32 0, ptr %6, align 4
  store i32 1, ptr %22, align 4
  br label %229

102:                                              ; preds = %67
  %103 = load ptr, ptr %8, align 8, !tbaa !8
  %104 = load i32, ptr %13, align 4, !tbaa !25
  %105 = sext i32 %104 to i64
  %106 = getelementptr inbounds i8, ptr %103, i64 %105
  store ptr %106, ptr %14, align 8, !tbaa !3
  %107 = load ptr, ptr %10, align 8, !tbaa !8
  %108 = icmp eq ptr %107, null
  br i1 %108, label %109, label %110

109:                                              ; preds = %102
  br label %115

110:                                              ; preds = %102
  %111 = load ptr, ptr %10, align 8, !tbaa !8
  %112 = load i32, ptr %13, align 4, !tbaa !25
  %113 = sext i32 %112 to i64
  %114 = getelementptr inbounds i8, ptr %111, i64 %113
  br label %115

115:                                              ; preds = %110, %109
  %116 = phi ptr [ null, %109 ], [ %114, %110 ]
  store ptr %116, ptr %15, align 8, !tbaa !3
  %117 = load ptr, ptr %14, align 8, !tbaa !3
  store ptr %117, ptr %16, align 8, !tbaa !57
  %118 = load i32, ptr %9, align 4, !tbaa !25
  %119 = icmp sge i32 %118, 0
  br i1 %119, label %120, label %131

120:                                              ; preds = %115
  %121 = load i32, ptr %13, align 4, !tbaa !25
  %122 = load i32, ptr %9, align 4, !tbaa !25
  %123 = sub nsw i32 %122, %121
  store i32 %123, ptr %9, align 4, !tbaa !25
  %124 = load i32, ptr %9, align 4, !tbaa !25
  %125 = icmp slt i32 %124, 64
  br i1 %125, label %126, label %130

126:                                              ; preds = %120
  %127 = load ptr, ptr %7, align 8, !tbaa !71
  %128 = load i32, ptr %9, align 4, !tbaa !25
  call void (ptr, ptr, ...) @udata_printError_77(ptr noundef %127, ptr noundef @.str.1, i32 noundef %128)
  %129 = load ptr, ptr %11, align 8, !tbaa !8
  store i32 8, ptr %129, align 4, !tbaa !9
  store i32 0, ptr %6, align 4
  store i32 1, ptr %22, align 4
  br label %229

130:                                              ; preds = %120
  br label %131

131:                                              ; preds = %130, %115
  store i32 0, ptr %18, align 4, !tbaa !25
  br label %132

132:                                              ; preds = %146, %131
  %133 = load i32, ptr %18, align 4, !tbaa !25
  %134 = icmp slt i32 %133, 16
  br i1 %134, label %135, label %149

135:                                              ; preds = %132
  %136 = load ptr, ptr %7, align 8, !tbaa !71
  %137 = load ptr, ptr %16, align 8, !tbaa !57
  %138 = load i32, ptr %18, align 4, !tbaa !25
  %139 = sext i32 %138 to i64
  %140 = getelementptr inbounds i32, ptr %137, i64 %139
  %141 = load i32, ptr %140, align 4, !tbaa !25
  %142 = call i32 @udata_readInt32_77(ptr noundef %136, i32 noundef %141)
  %143 = load i32, ptr %18, align 4, !tbaa !25
  %144 = sext i32 %143 to i64
  %145 = getelementptr inbounds [16 x i32], ptr %17, i64 0, i64 %144
  store i32 %142, ptr %145, align 4, !tbaa !25
  br label %146

146:                                              ; preds = %135
  %147 = load i32, ptr %18, align 4, !tbaa !25
  %148 = add nsw i32 %147, 1
  store i32 %148, ptr %18, align 4, !tbaa !25
  br label %132, !llvm.loop !73

149:                                              ; preds = %132
  %150 = getelementptr inbounds nuw [16 x i32], ptr %17, i64 0, i64 0
  %151 = load i32, ptr %150, align 16, !tbaa !25
  %152 = add nsw i32 64, %151
  %153 = getelementptr inbounds nuw [16 x i32], ptr %17, i64 0, i64 1
  %154 = load i32, ptr %153, align 4, !tbaa !25
  %155 = add nsw i32 %152, %154
  store i32 %155, ptr %21, align 4, !tbaa !25
  %156 = load i32, ptr %9, align 4, !tbaa !25
  %157 = icmp sge i32 %156, 0
  br i1 %157, label %158, label %225

158:                                              ; preds = %149
  %159 = load i32, ptr %9, align 4, !tbaa !25
  %160 = load i32, ptr %21, align 4, !tbaa !25
  %161 = icmp slt i32 %159, %160
  br i1 %161, label %162, label %166

162:                                              ; preds = %158
  %163 = load ptr, ptr %7, align 8, !tbaa !71
  %164 = load i32, ptr %9, align 4, !tbaa !25
  call void (ptr, ptr, ...) @udata_printError_77(ptr noundef %163, ptr noundef @.str.2, i32 noundef %164)
  %165 = load ptr, ptr %11, align 8, !tbaa !8
  store i32 8, ptr %165, align 4, !tbaa !9
  store i32 0, ptr %6, align 4
  store i32 1, ptr %22, align 4
  br label %229

166:                                              ; preds = %158
  %167 = load ptr, ptr %14, align 8, !tbaa !3
  %168 = load ptr, ptr %15, align 8, !tbaa !3
  %169 = icmp ne ptr %167, %168
  br i1 %169, label %170, label %178

170:                                              ; preds = %166
  br label %171

171:                                              ; preds = %170
  %172 = load ptr, ptr %15, align 8, !tbaa !3
  %173 = load ptr, ptr %14, align 8, !tbaa !3
  %174 = load i32, ptr %21, align 4, !tbaa !25
  %175 = sext i32 %174 to i64
  call void @llvm.memcpy.p0.p0.i64(ptr align 1 %172, ptr align 1 %173, i64 %175, i1 false)
  br label %176

176:                                              ; preds = %171
  br label %177

177:                                              ; preds = %176
  br label %178

178:                                              ; preds = %177, %166
  store i32 0, ptr %19, align 4, !tbaa !25
  store i32 64, ptr %20, align 4, !tbaa !25
  %179 = load ptr, ptr %7, align 8, !tbaa !71
  %180 = getelementptr inbounds nuw %struct.UDataSwapper, ptr %179, i32 0, i32 10
  %181 = load ptr, ptr %180, align 8, !tbaa !74
  %182 = load ptr, ptr %7, align 8, !tbaa !71
  %183 = load ptr, ptr %14, align 8, !tbaa !3
  %184 = load i32, ptr %20, align 4, !tbaa !25
  %185 = load ptr, ptr %15, align 8, !tbaa !3
  %186 = load ptr, ptr %11, align 8, !tbaa !8
  %187 = call noundef i32 %181(ptr noundef %182, ptr noundef %183, i32 noundef %184, ptr noundef %185, ptr noundef %186)
  %188 = load i32, ptr %20, align 4, !tbaa !25
  %189 = load i32, ptr %19, align 4, !tbaa !25
  %190 = add nsw i32 %189, %188
  store i32 %190, ptr %19, align 4, !tbaa !25
  %191 = getelementptr inbounds nuw [16 x i32], ptr %17, i64 0, i64 0
  %192 = load i32, ptr %191, align 16, !tbaa !25
  store i32 %192, ptr %20, align 4, !tbaa !25
  %193 = load ptr, ptr %7, align 8, !tbaa !71
  %194 = load ptr, ptr %14, align 8, !tbaa !3
  %195 = load i32, ptr %19, align 4, !tbaa !25
  %196 = sext i32 %195 to i64
  %197 = getelementptr inbounds i8, ptr %194, i64 %196
  %198 = load i32, ptr %20, align 4, !tbaa !25
  %199 = load ptr, ptr %15, align 8, !tbaa !3
  %200 = load i32, ptr %19, align 4, !tbaa !25
  %201 = sext i32 %200 to i64
  %202 = getelementptr inbounds i8, ptr %199, i64 %201
  %203 = load ptr, ptr %11, align 8, !tbaa !8
  %204 = call i32 @utrie_swap_77(ptr noundef %193, ptr noundef %197, i32 noundef %198, ptr noundef %202, ptr noundef %203)
  %205 = load i32, ptr %20, align 4, !tbaa !25
  %206 = load i32, ptr %19, align 4, !tbaa !25
  %207 = add nsw i32 %206, %205
  store i32 %207, ptr %19, align 4, !tbaa !25
  %208 = getelementptr inbounds nuw [16 x i32], ptr %17, i64 0, i64 1
  %209 = load i32, ptr %208, align 4, !tbaa !25
  store i32 %209, ptr %20, align 4, !tbaa !25
  %210 = load ptr, ptr %7, align 8, !tbaa !71
  %211 = getelementptr inbounds nuw %struct.UDataSwapper, ptr %210, i32 0, i32 9
  %212 = load ptr, ptr %211, align 8, !tbaa !76
  %213 = load ptr, ptr %7, align 8, !tbaa !71
  %214 = load ptr, ptr %14, align 8, !tbaa !3
  %215 = load i32, ptr %19, align 4, !tbaa !25
  %216 = sext i32 %215 to i64
  %217 = getelementptr inbounds i8, ptr %214, i64 %216
  %218 = load i32, ptr %20, align 4, !tbaa !25
  %219 = load ptr, ptr %15, align 8, !tbaa !3
  %220 = load i32, ptr %19, align 4, !tbaa !25
  %221 = sext i32 %220 to i64
  %222 = getelementptr inbounds i8, ptr %219, i64 %221
  %223 = load ptr, ptr %11, align 8, !tbaa !8
  %224 = call noundef i32 %212(ptr noundef %213, ptr noundef %217, i32 noundef %218, ptr noundef %222, ptr noundef %223)
  br label %225

225:                                              ; preds = %178, %149
  %226 = load i32, ptr %13, align 4, !tbaa !25
  %227 = load i32, ptr %21, align 4, !tbaa !25
  %228 = add nsw i32 %226, %227
  store i32 %228, ptr %6, align 4
  store i32 1, ptr %22, align 4
  br label %229

229:                                              ; preds = %225, %162, %126, %74, %36
  call void @llvm.lifetime.end.p0(i64 4, ptr %21) #13
  call void @llvm.lifetime.end.p0(i64 4, ptr %20) #13
  call void @llvm.lifetime.end.p0(i64 4, ptr %19) #13
  call void @llvm.lifetime.end.p0(i64 4, ptr %18) #13
  call void @llvm.lifetime.end.p0(i64 64, ptr %17) #13
  call void @llvm.lifetime.end.p0(i64 8, ptr %16) #13
  call void @llvm.lifetime.end.p0(i64 8, ptr %15) #13
  call void @llvm.lifetime.end.p0(i64 8, ptr %14) #13
  call void @llvm.lifetime.end.p0(i64 4, ptr %13) #13
  call void @llvm.lifetime.end.p0(i64 8, ptr %12) #13
  %230 = load i32, ptr %6, align 4
  ret i32 %230
}