; Function Attrs: mustprogress uwtable
define i32 @usprep_swap_77(ptr noundef %0, ptr noundef %1, i32 noundef %2, ptr noundef %3, ptr noundef %4) local_unnamed_addr #0 {
  %6 = alloca [16 x i32], align 16
  call void @llvm.lifetime.start.p0(i64 64, ptr nonnull %6) #15
  %7 = tail call i32 @udata_swapDataHeader_77(ptr noundef %0, ptr noundef %1, i32 noundef %2, ptr noundef %3, ptr noundef %4)
  %8 = icmp eq ptr %4, null
  br i1 %8, label %88, label %9

9:                                                ; preds = %5
  %10 = load i32, ptr %4, align 4, !tbaa !3
  %11 = icmp slt i32 %10, 1
  br i1 %11, label %12, label %88

12:                                               ; preds = %9
  %13 = getelementptr inbounds nuw i8, ptr %1, i64 12
  %14 = load i8, ptr %13, align 2, !tbaa !29
  %15 = icmp eq i8 %14, 83
  %16 = getelementptr inbounds nuw i8, ptr %1, i64 13
  %17 = load i8, ptr %16, align 1, !tbaa !29
  %18 = icmp eq i8 %17, 80
  %or.cond = select i1 %15, i1 %18, i1 false
  br i1 %or.cond, label %19, label %._crit_edge

19:                                               ; preds = %12
  %20 = getelementptr inbounds nuw i8, ptr %1, i64 14
  %21 = load i8, ptr %20, align 2, !tbaa !29
  %22 = icmp eq i8 %21, 82
  br i1 %22, label %23, label %._crit_edge

23:                                               ; preds = %19
  %24 = getelementptr inbounds nuw i8, ptr %1, i64 15
  %25 = load i8, ptr %24, align 1, !tbaa !29
  %26 = icmp eq i8 %25, 80
  br i1 %26, label %27, label %._crit_edge

27:                                               ; preds = %23
  %28 = getelementptr inbounds nuw i8, ptr %1, i64 16
  %29 = load i8, ptr %28, align 2, !tbaa !29
  %30 = icmp eq i8 %29, 3
  br i1 %30, label %43, label %._crit_edge

._crit_edge:                                      ; preds = %12, %27, %23, %19
  %31 = phi i8 [ 80, %27 ], [ 80, %23 ], [ 80, %19 ], [ %17, %12 ]
  %32 = zext i8 %14 to i32
  %33 = zext i8 %31 to i32
  %34 = getelementptr inbounds nuw i8, ptr %1, i64 14
  %35 = load i8, ptr %34, align 2, !tbaa !29
  %36 = zext i8 %35 to i32
  %37 = getelementptr inbounds nuw i8, ptr %1, i64 15
  %38 = load i8, ptr %37, align 1, !tbaa !29
  %39 = zext i8 %38 to i32
  %40 = getelementptr inbounds nuw i8, ptr %1, i64 16
  %41 = load i8, ptr %40, align 2, !tbaa !29
  %42 = zext i8 %41 to i32
  tail call void (ptr, ptr, ...) @udata_printError_77(ptr noundef %0, ptr noundef nonnull @.str, i32 noundef %32, i32 noundef %33, i32 noundef %36, i32 noundef %39, i32 noundef %42)
  store i32 16, ptr %4, align 4, !tbaa !3
  br label %88

43:                                               ; preds = %27
  %44 = sext i32 %7 to i64
  %45 = getelementptr inbounds i8, ptr %1, i64 %44
  %46 = icmp eq ptr %3, null
  %47 = getelementptr inbounds i8, ptr %3, i64 %44
  %48 = select i1 %46, ptr null, ptr %47
  %49 = icmp sgt i32 %2, -1
  br i1 %49, label %50, label %54

50:                                               ; preds = %43
  %51 = sub nsw i32 %2, %7
  %52 = icmp slt i32 %51, 64
  br i1 %52, label %53, label %54

53:                                               ; preds = %50
  tail call void (ptr, ptr, ...) @udata_printError_77(ptr noundef %0, ptr noundef nonnull @.str.1, i32 noundef %51)
  store i32 8, ptr %4, align 4, !tbaa !3
  br label %88

54:                                               ; preds = %50, %43
  %.077 = phi i32 [ %51, %50 ], [ %2, %43 ]
  br label %55

55:                                               ; preds = %54, %55
  %indvars.iv = phi i64 [ 0, %54 ], [ %indvars.iv.next, %55 ]
  %56 = getelementptr inbounds nuw i32, ptr %45, i64 %indvars.iv
  %57 = load i32, ptr %56, align 4, !tbaa !25
  %58 = tail call i32 @udata_readInt32_77(ptr noundef %0, i32 noundef %57)
  %59 = getelementptr inbounds nuw [16 x i32], ptr %6, i64 0, i64 %indvars.iv
  store i32 %58, ptr %59, align 4, !tbaa !25
  %indvars.iv.next = add nuw nsw i64 %indvars.iv, 1
  %exitcond.not = icmp eq i64 %indvars.iv.next, 16
  br i1 %exitcond.not, label %60, label %55, !llvm.loop !60

60:                                               ; preds = %55
  %61 = load i32, ptr %6, align 16, !tbaa !25
  %62 = add nsw i32 %61, 64
  %63 = getelementptr inbounds nuw i8, ptr %6, i64 4
  %64 = load i32, ptr %63, align 4, !tbaa !25
  %65 = add nsw i32 %62, %64
  %66 = icmp sgt i32 %.077, -1
  br i1 %66, label %67, label %86

67:                                               ; preds = %60
  %68 = icmp slt i32 %.077, %65
  br i1 %68, label %69, label %70

69:                                               ; preds = %67
  tail call void (ptr, ptr, ...) @udata_printError_77(ptr noundef %0, ptr noundef nonnull @.str.2, i32 noundef %.077)
  store i32 8, ptr %4, align 4, !tbaa !3
  br label %88

70:                                               ; preds = %67
  %.not86 = icmp eq ptr %45, %48
  br i1 %.not86, label %73, label %71

71:                                               ; preds = %70
  %72 = sext i32 %65 to i64
  tail call void @llvm.memcpy.p0.p0.i64(ptr align 1 %48, ptr nonnull align 1 %45, i64 %72, i1 false)
  br label %73

73:                                               ; preds = %71, %70
  %74 = getelementptr inbounds nuw i8, ptr %0, i64 56
  %75 = load ptr, ptr %74, align 8, !tbaa !61
  %76 = tail call noundef i32 %75(ptr noundef %0, ptr noundef nonnull %45, i32 noundef 64, ptr noundef %48, ptr noundef nonnull %4)
  %77 = getelementptr inbounds nuw i8, ptr %45, i64 64
  %78 = getelementptr inbounds nuw i8, ptr %47, i64 64
  %79 = tail call i32 @utrie_swap_77(ptr noundef %0, ptr noundef nonnull %77, i32 noundef %61, ptr noundef nonnull %78, ptr noundef nonnull %4)
  %80 = getelementptr inbounds nuw i8, ptr %0, i64 48
  %81 = load ptr, ptr %80, align 8, !tbaa !63
  %82 = sext i32 %62 to i64
  %83 = getelementptr inbounds i8, ptr %45, i64 %82
  %84 = getelementptr inbounds i8, ptr %48, i64 %82
  %85 = tail call noundef i32 %81(ptr noundef %0, ptr noundef nonnull %83, i32 noundef %64, ptr noundef %84, ptr noundef nonnull %4)
  br label %86

86:                                               ; preds = %73, %60
  %87 = add nsw i32 %65, %7
  br label %88

88:                                               ; preds = %5, %9, %86, %69, %53, %._crit_edge
  %.0 = phi i32 [ 0, %53 ], [ 0, %69 ], [ %87, %86 ], [ 0, %._crit_edge ], [ 0, %9 ], [ 0, %5 ]
  call void @llvm.lifetime.end.p0(i64 64, ptr nonnull %6) #15
  ret i32 %.0
}